; Function Attrs: nounwind uwtable
define range(i32 -901, 1) i32 @nghttp2_hd_deflate_new2(ptr noundef writeonly captures(none) %0, i64 noundef %1, ptr noundef %2) local_unnamed_addr #0 {
  %4 = icmp eq ptr %2, null
  br i1 %4, label %5, label %7

5:                                                ; preds = %3
  %6 = tail call ptr @nghttp2_mem_default() #12
  br label %7

7:                                                ; preds = %5, %3
  %.012 = phi ptr [ %6, %5 ], [ %2, %3 ]
  %8 = tail call ptr @nghttp2_mem_malloc(ptr noundef %.012, i64 noundef 1112) #12
  %9 = icmp eq ptr %8, null
  br i1 %9, label %28, label %10

10:                                               ; preds = %7
  %11 = getelementptr inbounds nuw i8, ptr %8, i64 32
  store ptr %.012, ptr %11, align 8, !tbaa !33
  %12 = getelementptr inbounds nuw i8, ptr %8, i64 60
  store i8 0, ptr %12, align 4, !tbaa !38
  %13 = getelementptr inbounds nuw i8, ptr %8, i64 48
  store i64 4096, ptr %13, align 8, !tbaa !39
  %14 = tail call ptr @nghttp2_mem_malloc(ptr noundef %.012, i64 noundef 1024) #12
  store ptr %14, ptr %8, align 8, !tbaa !40
  %15 = icmp eq ptr %14, null
  br i1 %15, label %nghttp2_hd_deflate_init2.exit, label %16

16:                                               ; preds = %10
  %17 = getelementptr inbounds nuw i8, ptr %8, i64 8
  store i64 127, ptr %17, align 8, !tbaa !41
  %18 = getelementptr inbounds nuw i8, ptr %8, i64 16
  tail call void @llvm.memset.p0.i64(ptr noundef nonnull align 8 dereferenceable(16) %18, i8 0, i64 16, i1 false)
  %19 = getelementptr inbounds nuw i8, ptr %8, i64 40
  store i64 0, ptr %19, align 8, !tbaa !42
  %20 = getelementptr inbounds nuw i8, ptr %8, i64 56
  store i32 0, ptr %20, align 8, !tbaa !43
  %21 = getelementptr inbounds nuw i8, ptr %8, i64 64
  tail call void @llvm.memset.p0.i64(ptr noundef nonnull align 8 dereferenceable(1024) %21, i8 0, i64 1024, i1 false)
  %22 = icmp ult i64 %1, 4096
  br i1 %22, label %23, label %24

23:                                               ; preds = %16
  store i64 %1, ptr %13, align 8, !tbaa !49
  br label %24

nghttp2_hd_deflate_init2.exit:                    ; preds = %10
  tail call void @nghttp2_mem_free(ptr noundef %.012, ptr noundef nonnull %8) #12
  br label %28

24:                                               ; preds = %16, %23
  %.sink.i = phi i8 [ 1, %23 ], [ 0, %16 ]
  %25 = getelementptr inbounds nuw i8, ptr %8, i64 1104
  store i8 %.sink.i, ptr %25, align 8, !tbaa !44
  %26 = getelementptr inbounds nuw i8, ptr %8, i64 1088
  store i64 %1, ptr %26, align 8, !tbaa !47
  %27 = getelementptr inbounds nuw i8, ptr %8, i64 1096
  store i64 4294967295, ptr %27, align 8, !tbaa !48
  store ptr %8, ptr %0, align 8, !tbaa !100
  br label %28

28:                                               ; preds = %7, %24, %nghttp2_hd_deflate_init2.exit
  %.0 = phi i32 [ -901, %nghttp2_hd_deflate_init2.exit ], [ 0, %24 ], [ -901, %7 ]
  ret i32 %.0
}